target datalayout = "e-m:e-p270:32:32-p271:32:32-p272:64:64-i64:64-i128:128-f80:128-n8:16:32:64-S128"
target triple = "x86_64-pc-linux-gnu"

@.str = private unnamed_addr constant [2 x i8] c"\0A\00", align 1
@stdout = external global ptr, align 8
@.str.1 = private unnamed_addr constant [3 x i8] c", \00", align 1
@.str.2 = private unnamed_addr constant [18 x i8] c"%3d */  { %2d,   \00", align 1
@.str.3 = private unnamed_addr constant [5 x i8] c"%s%d\00", align 1
@.str.4 = private unnamed_addr constant [1 x i8] zeroinitializer, align 1
@.str.5 = private unnamed_addr constant [4 x i8] c" }\0A\00", align 1

; Function Attrs: nounwind uwtable
define void @Map_Var3Print() #0 {
  %1 = alloca ptr, align 8
  %2 = alloca ptr, align 8
  %3 = alloca ptr, align 8
  %4 = alloca i32, align 4
  %5 = alloca i32, align 4
  call void @llvm.lifetime.start.p0(i64 8, ptr %1) #3
  call void @llvm.lifetime.start.p0(i64 8, ptr %2) #3
  call void @llvm.lifetime.start.p0(i64 8, ptr %3) #3
  call void @llvm.lifetime.start.p0(i64 4, ptr %4) #3
  call void @llvm.lifetime.start.p0(i64 4, ptr %5) #3
  call void @Extra_Truth3VarN(ptr noundef %1, ptr noundef %2, ptr noundef %3)
  store i32 0, ptr %4, align 4, !tbaa !3
  br label %6

6:                                                ; preds = %22, %0
  %7 = load i32, ptr %4, align 4, !tbaa !3
  %8 = icmp slt i32 %7, 256
  br i1 %8, label %9, label %25

9:                                                ; preds = %6
  %10 = load i32, ptr %4, align 4, !tbaa !3
  %11 = srem i32 %10, 8
  %12 = icmp eq i32 %11, 0
  br i1 %12, label %13, label %15

13:                                               ; preds = %9
  %14 = call i32 (ptr, ...) @printf(ptr noundef @.str)
  br label %15

15:                                               ; preds = %13, %9
  %16 = load ptr, ptr @stdout, align 8, !tbaa !26
  %17 = load ptr, ptr %1, align 8, !tbaa !7
  %18 = load i32, ptr %4, align 4, !tbaa !3
  %19 = sext i32 %18 to i64
  %20 = getelementptr inbounds i32, ptr %17, i64 %19
  call void @Extra_PrintHex(ptr noundef %16, ptr noundef %20, i32 noundef 5)
  %21 = call i32 (ptr, ...) @printf(ptr noundef @.str.1)
  br label %22

22:                                               ; preds = %15
  %23 = load i32, ptr %4, align 4, !tbaa !3
  %24 = add nsw i32 %23, 1
  store i32 %24, ptr %4, align 4, !tbaa !3
  br label %6, !llvm.loop !28

25:                                               ; preds = %6
  %26 = call i32 (ptr, ...) @printf(ptr noundef @.str)
  store i32 0, ptr %4, align 4, !tbaa !3
  br label %27

27:                                               ; preds = %68, %25
  %28 = load i32, ptr %4, align 4, !tbaa !3
  %29 = icmp slt i32 %28, 256
  br i1 %29, label %30, label %71

30:                                               ; preds = %27
  %31 = load i32, ptr %4, align 4, !tbaa !3
  %32 = load ptr, ptr %3, align 8, !tbaa !14
  %33 = load i32, ptr %4, align 4, !tbaa !3
  %34 = sext i32 %33 to i64
  %35 = getelementptr inbounds i8, ptr %32, i64 %34
  %36 = load i8, ptr %35, align 1, !tbaa !16
  %37 = sext i8 %36 to i32
  %38 = call i32 (ptr, ...) @printf(ptr noundef @.str.2, i32 noundef %31, i32 noundef %37)
  store i32 0, ptr %5, align 4, !tbaa !3
  br label %39

39:                                               ; preds = %63, %30
  %40 = load i32, ptr %5, align 4, !tbaa !3
  %41 = load ptr, ptr %3, align 8, !tbaa !14
  %42 = load i32, ptr %4, align 4, !tbaa !3
  %43 = sext i32 %42 to i64
  %44 = getelementptr inbounds i8, ptr %41, i64 %43
  %45 = load i8, ptr %44, align 1, !tbaa !16
  %46 = sext i8 %45 to i32
  %47 = icmp slt i32 %40, %46
  br i1 %47, label %48, label %66

48:                                               ; preds = %39
  %49 = load i32, ptr %5, align 4, !tbaa !3
  %50 = icmp ne i32 %49, 0
  %51 = select i1 %50, ptr @.str.1, ptr @.str.4
  %52 = load ptr, ptr %2, align 8, !tbaa !12
  %53 = load i32, ptr %4, align 4, !tbaa !3
  %54 = sext i32 %53 to i64
  %55 = getelementptr inbounds ptr, ptr %52, i64 %54
  %56 = load ptr, ptr %55, align 8, !tbaa !14
  %57 = load i32, ptr %5, align 4, !tbaa !3
  %58 = sext i32 %57 to i64
  %59 = getelementptr inbounds i8, ptr %56, i64 %58
  %60 = load i8, ptr %59, align 1, !tbaa !16
  %61 = sext i8 %60 to i32
  %62 = call i32 (ptr, ...) @printf(ptr noundef @.str.3, ptr noundef %51, i32 noundef %61)
  br label %63

63:                                               ; preds = %48
  %64 = load i32, ptr %5, align 4, !tbaa !3
  %65 = add nsw i32 %64, 1
  store i32 %65, ptr %5, align 4, !tbaa !3
  br label %39, !llvm.loop !29

66:                                               ; preds = %39
  %67 = call i32 (ptr, ...) @printf(ptr noundef @.str.5)
  br label %68

68:                                               ; preds = %66
  %69 = load i32, ptr %4, align 4, !tbaa !3
  %70 = add nsw i32 %69, 1
  store i32 %70, ptr %4, align 4, !tbaa !3
  br label %27, !llvm.loop !30

71:                                               ; preds = %27
  %72 = call i32 (ptr, ...) @printf(ptr noundef @.str)
  call void @llvm.lifetime.end.p0(i64 4, ptr %5) #3
  call void @llvm.lifetime.end.p0(i64 4, ptr %4) #3
  call void @llvm.lifetime.end.p0(i64 8, ptr %3) #3
  call void @llvm.lifetime.end.p0(i64 8, ptr %2) #3
  call void @llvm.lifetime.end.p0(i64 8, ptr %1) #3
  ret void
}