; Function Attrs: nounwind uwtable
define void @Map_Var3Print() local_unnamed_addr #0 {
  %1 = alloca ptr, align 8
  %2 = alloca ptr, align 8
  %3 = alloca ptr, align 8
  call void @llvm.lifetime.start.p0(i64 8, ptr nonnull %1) #6
  call void @llvm.lifetime.start.p0(i64 8, ptr nonnull %2) #6
  call void @llvm.lifetime.start.p0(i64 8, ptr nonnull %3) #6
  call void @Extra_Truth3VarN(ptr noundef nonnull %1, ptr noundef nonnull %2, ptr noundef nonnull %3) #6
  br label %4

4:                                                ; preds = %0, %8
  %indvars.iv = phi i64 [ 0, %0 ], [ %indvars.iv.next, %8 ]
  %5 = and i64 %indvars.iv, 7
  %6 = icmp eq i64 %5, 0
  br i1 %6, label %7, label %8

7:                                                ; preds = %4
  %putchar16 = call i32 @putchar(i32 10)
  br label %8

8:                                                ; preds = %7, %4
  %9 = load ptr, ptr @stdout, align 8, !tbaa !22
  %10 = load ptr, ptr %1, align 8, !tbaa !3
  %11 = getelementptr inbounds nuw i32, ptr %10, i64 %indvars.iv
  call void @Extra_PrintHex(ptr noundef %9, ptr noundef %11, i32 noundef 5) #6
  %12 = call i32 (ptr, ...) @printf(ptr noundef nonnull dereferenceable(1) @.str.1)
  %indvars.iv.next = add nuw nsw i64 %indvars.iv, 1
  %exitcond.not = icmp eq i64 %indvars.iv.next, 256
  br i1 %exitcond.not, label %13, label %4, !llvm.loop !24

13:                                               ; preds = %8
  %putchar = call i32 @putchar(i32 10)
  br label %14

14:                                               ; preds = %13, %._crit_edge
  %indvars.iv24 = phi i64 [ 0, %13 ], [ %indvars.iv.next25, %._crit_edge ]
  %15 = load ptr, ptr %3, align 8, !tbaa !11
  %16 = getelementptr inbounds nuw i8, ptr %15, i64 %indvars.iv24
  %17 = load i8, ptr %16, align 1, !tbaa !10
  %18 = sext i8 %17 to i32
  %19 = trunc nuw nsw i64 %indvars.iv24 to i32
  %20 = call i32 (ptr, ...) @printf(ptr noundef nonnull dereferenceable(1) @.str.2, i32 noundef %19, i32 noundef %18)
  %21 = load ptr, ptr %3, align 8, !tbaa !11
  %22 = getelementptr inbounds nuw i8, ptr %21, i64 %indvars.iv24
  %23 = load i8, ptr %22, align 1, !tbaa !10
  %24 = icmp sgt i8 %23, 0
  br i1 %24, label %.lr.ph, label %._crit_edge

.lr.ph:                                           ; preds = %14, %.lr.ph
  %indvars.iv21 = phi i64 [ %indvars.iv.next22, %.lr.ph ], [ 0, %14 ]
  %.not = icmp eq i64 %indvars.iv21, 0
  %25 = select i1 %.not, ptr @.str.4, ptr @.str.1
  %26 = load ptr, ptr %2, align 8, !tbaa !25
  %27 = getelementptr inbounds nuw ptr, ptr %26, i64 %indvars.iv24
  %28 = load ptr, ptr %27, align 8, !tbaa !11
  %29 = getelementptr inbounds nuw i8, ptr %28, i64 %indvars.iv21
  %30 = load i8, ptr %29, align 1, !tbaa !10
  %31 = sext i8 %30 to i32
  %32 = call i32 (ptr, ...) @printf(ptr noundef nonnull dereferenceable(1) @.str.3, ptr noundef nonnull %25, i32 noundef %31)
  %indvars.iv.next22 = add nuw nsw i64 %indvars.iv21, 1
  %33 = load ptr, ptr %3, align 8, !tbaa !11
  %34 = getelementptr inbounds nuw i8, ptr %33, i64 %indvars.iv24
  %35 = load i8, ptr %34, align 1, !tbaa !10
  %36 = sext i8 %35 to i64
  %37 = icmp slt i64 %indvars.iv.next22, %36
  br i1 %37, label %.lr.ph, label %._crit_edge, !llvm.loop !27

._crit_edge:                                      ; preds = %.lr.ph, %14
  %puts = call i32 @puts(ptr nonnull dereferenceable(1) @str)
  %indvars.iv.next25 = add nuw nsw i64 %indvars.iv24, 1
  %exitcond27.not = icmp eq i64 %indvars.iv.next25, 256
  br i1 %exitcond27.not, label %38, label %14, !llvm.loop !28

38:                                               ; preds = %._crit_edge
  %putchar15 = call i32 @putchar(i32 10)
  call void @llvm.lifetime.end.p0(i64 8, ptr nonnull %3) #6
  call void @llvm.lifetime.end.p0(i64 8, ptr nonnull %2) #6
  call void @llvm.lifetime.end.p0(i64 8, ptr nonnull %1) #6
  ret void
}